target datalayout = "e-m:e-p270:32:32-p271:32:32-p272:64:64-i64:64-i128:128-f80:128-n8:16:32:64-S128"
target triple = "x86_64-pc-linux-gnu"

%struct._archiveHandle = type { %struct.Archive, i32, ptr, ptr, i64, i64, i32, %struct.sqlparseInfo, i64, i32, ptr, i64, i64, i64, ptr, ptr, ptr, ptr, ptr, ptr, ptr, ptr, ptr, ptr, ptr, ptr, ptr, ptr, ptr, ptr, ptr, ptr, ptr, ptr, ptr, ptr, ptr, ptr, ptr, ptr, ptr, ptr, ptr, ptr, i32, i32, i8, i32, i8, i32, ptr, ptr, ptr, ptr, i32, i32, ptr, ptr, ptr, %struct.pg_compress_specification, i8, i32, i32, ptr, ptr, ptr, ptr, ptr, i32, ptr, i64, i64, i32, i32, i32, i32, ptr, ptr }
%struct.Archive = type { ptr, ptr, i32, ptr, i32, i8, i32, i32, i32, ptr, i32, i8, ptr, ptr, i8, i32, ptr }
%struct.sqlparseInfo = type { i32, i8, ptr }
%struct.pg_compress_specification = type { i32, i32, i32, i32, i8, ptr }
%struct.lclContext = type { ptr, ptr, ptr, ptr }
%struct.CompressFileHandle = type { ptr, ptr, ptr, ptr, ptr, ptr, ptr, ptr, ptr, %struct.pg_compress_specification, ptr }

@.str.15 = private unnamed_addr constant [2 x i8] c"w\00", align 1
@.str.16 = private unnamed_addr constant [36 x i8] c"could not open output file \22%s\22: %m\00", align 1
@.str.28 = private unnamed_addr constant [15 x i8] c"%s/blob_%u.dat\00", align 1

; Function Attrs: nounwind uwtable
define internal void @_StartLO(ptr noundef %0, ptr noundef %1, i32 noundef %2) #0 {
  %4 = alloca ptr, align 8
  %5 = alloca ptr, align 8
  %6 = alloca i32, align 4
  %7 = alloca ptr, align 8
  %8 = alloca [1024 x i8], align 16
  store ptr %0, ptr %4, align 8
  store ptr %1, ptr %5, align 8
  store i32 %2, ptr %6, align 4
  call void @llvm.lifetime.start.p0(i64 8, ptr %7) #9
  %9 = load ptr, ptr %4, align 8
  %10 = getelementptr inbounds nuw %struct._archiveHandle, ptr %9, i32 0, i32 63
  %11 = load ptr, ptr %10, align 8
  store ptr %11, ptr %7, align 8
  call void @llvm.lifetime.start.p0(i64 1024, ptr %8) #9
  %12 = getelementptr inbounds [1024 x i8], ptr %8, i64 0, i64 0
  %13 = load ptr, ptr %7, align 8
  %14 = getelementptr inbounds nuw %struct.lclContext, ptr %13, i32 0, i32 0
  %15 = load ptr, ptr %14, align 8
  %16 = load i32, ptr %6, align 4
  %17 = call i32 (ptr, i64, ptr, ...) @pg_snprintf(ptr noundef %12, i64 noundef 1024, ptr noundef @.str.28, ptr noundef %15, i32 noundef %16)
  %18 = load ptr, ptr %4, align 8
  %19 = getelementptr inbounds nuw %struct._archiveHandle, ptr %18, i32 0, i32 59
  %20 = call ptr @InitCompressFileHandle(ptr noundef byval(%struct.pg_compress_specification) align 8 %19)
  %21 = load ptr, ptr %7, align 8
  %22 = getelementptr inbounds nuw %struct.lclContext, ptr %21, i32 0, i32 1
  store ptr %20, ptr %22, align 8
  %23 = load ptr, ptr %7, align 8
  %24 = getelementptr inbounds nuw %struct.lclContext, ptr %23, i32 0, i32 1
  %25 = load ptr, ptr %24, align 8
  %26 = getelementptr inbounds nuw %struct.CompressFileHandle, ptr %25, i32 0, i32 1
  %27 = load ptr, ptr %26, align 8
  %28 = getelementptr inbounds [1024 x i8], ptr %8, i64 0, i64 0
  %29 = load ptr, ptr %7, align 8
  %30 = getelementptr inbounds nuw %struct.lclContext, ptr %29, i32 0, i32 1
  %31 = load ptr, ptr %30, align 8
  %32 = call zeroext i1 %27(ptr noundef %28, ptr noundef @.str.15, ptr noundef %31)
  br i1 %32, label %38, label %33

33:                                               ; preds = %3
  br label %34

34:                                               ; preds = %33
  %35 = getelementptr inbounds [1024 x i8], ptr %8, i64 0, i64 0
  call void (i32, i32, ptr, ...) @pg_log_generic(i32 noundef 4, i32 noundef 0, ptr noundef @.str.16, ptr noundef %35)
  call void @exit_nicely(i32 noundef 1) #11
  unreachable

36:                                               ; No predecessors!
  br label %37

37:                                               ; preds = %36
  br label %38

38:                                               ; preds = %37, %3
  call void @llvm.lifetime.end.p0(i64 1024, ptr %8) #9
  call void @llvm.lifetime.end.p0(i64 8, ptr %7) #9
  ret void
}