; Function Attrs: nounwind uwtable
define internal void @_StartLO(ptr noundef readonly captures(none) %0, ptr readnone captures(none) %1, i32 noundef %2) #0 {
  %4 = alloca [1024 x i8], align 16
  %5 = getelementptr inbounds nuw i8, ptr %0, i64 592
  %6 = load ptr, ptr %5, align 8
  call void @llvm.lifetime.start.p0(i64 1024, ptr nonnull %4) #14
  %7 = load ptr, ptr %6, align 8
  %8 = call i32 (ptr, i64, ptr, ...) @pg_snprintf(ptr noundef nonnull %4, i64 noundef 1024, ptr noundef nonnull @.str.28, ptr noundef %7, i32 noundef %2) #14
  %9 = getelementptr inbounds nuw i8, ptr %0, i64 544
  %10 = call ptr @InitCompressFileHandle(ptr noundef nonnull byval(%struct.pg_compress_specification) align 8 %9) #14
  %11 = getelementptr inbounds nuw i8, ptr %6, i64 8
  store ptr %10, ptr %11, align 8
  %12 = getelementptr inbounds nuw i8, ptr %10, i64 8
  %13 = load ptr, ptr %12, align 8
  %14 = call zeroext i1 %13(ptr noundef nonnull %4, ptr noundef nonnull @.str.15, ptr noundef %10) #14
  br i1 %14, label %16, label %15

15:                                               ; preds = %3
  call void (i32, i32, ptr, ...) @pg_log_generic(i32 noundef 4, i32 noundef 0, ptr noundef nonnull @.str.16, ptr noundef nonnull %4) #14
  call void @exit_nicely(i32 noundef 1) #15
  unreachable

16:                                               ; preds = %3
  call void @llvm.lifetime.end.p0(i64 1024, ptr nonnull %4) #14
  ret void
}